target datalayout = "e-m:e-p270:32:32-p271:32:32-p272:64:64-i64:64-i128:128-f80:128-n8:16:32:64-S128"
target triple = "x86_64-pc-linux-gnu"

%struct.AVTextFormatter = type { ptr, i32, ptr, ptr, ptr, ptr, ptr, ptr, ptr, i32 }
%struct.AVTextFormatContext = type { ptr, ptr, ptr, ptr, ptr, ptr, i32, i32, [12 x i32], [12 x [100 x i32]], [12 x ptr], [12 x %struct.AVBPrint], i32, i32, i32, i32, i32, ptr, i32, ptr, i32 }
%struct.AVBPrint = type { ptr, i32, i32, i32, [1 x i8], [1000 x i8] }
%struct.AVTextFormatSection = type { i32, ptr, i32, [12 x i32], ptr, ptr, ptr, ptr, i32, ptr, ptr, ptr, ptr }

@.str = private unnamed_addr constant [30 x i8] c"Assertion %s failed at %s:%d\0A\00", align 1
@.str.2 = private unnamed_addr constant [34 x i8] c"fftools/textformat/avtextformat.c\00", align 1
@.str.12 = private unnamed_addr constant [43 x i8] c"Invalid section_id for section_header: %d\0A\00", align 1
@.str.13 = private unnamed_addr constant [17 x i8] c"tctx->level < 12\00", align 1

; Function Attrs: nounwind uwtable
define void @avtext_print_section_header(ptr noundef %0, ptr noundef %1, i32 noundef %2) #0 {
  %4 = alloca ptr, align 8
  %5 = alloca ptr, align 8
  %6 = alloca i32, align 4
  store ptr %0, ptr %4, align 8, !tbaa !10
  store ptr %1, ptr %5, align 8, !tbaa !50
  store i32 %2, ptr %6, align 4, !tbaa !12
  %7 = load i32, ptr %6, align 4, !tbaa !12
  %8 = icmp slt i32 %7, 0
  br i1 %8, label %15, label %9

9:                                                ; preds = %3
  %10 = load i32, ptr %6, align 4, !tbaa !12
  %11 = load ptr, ptr %4, align 8, !tbaa !10
  %12 = getelementptr inbounds nuw %struct.AVTextFormatContext, ptr %11, i32 0, i32 6
  %13 = load i32, ptr %12, align 8, !tbaa !48
  %14 = icmp sge i32 %10, %13
  br i1 %14, label %15, label %18

15:                                               ; preds = %9, %3
  %16 = load ptr, ptr %4, align 8, !tbaa !10
  %17 = load i32, ptr %6, align 4, !tbaa !12
  call void (ptr, i32, ptr, ...) @av_log(ptr noundef %16, i32 noundef 16, ptr noundef @.str.12, i32 noundef %17)
  br label %73

18:                                               ; preds = %9
  %19 = load ptr, ptr %4, align 8, !tbaa !10
  %20 = getelementptr inbounds nuw %struct.AVTextFormatContext, ptr %19, i32 0, i32 7
  %21 = load i32, ptr %20, align 4, !tbaa !46
  %22 = add nsw i32 %21, 1
  store i32 %22, ptr %20, align 4, !tbaa !46
  br label %23

23:                                               ; preds = %18
  %24 = load ptr, ptr %4, align 8, !tbaa !10
  %25 = getelementptr inbounds nuw %struct.AVTextFormatContext, ptr %24, i32 0, i32 7
  %26 = load i32, ptr %25, align 4, !tbaa !46
  %27 = icmp slt i32 %26, 12
  br i1 %27, label %29, label %28

28:                                               ; preds = %23
  call void (ptr, i32, ptr, ...) @av_log(ptr noundef null, i32 noundef 0, ptr noundef @.str, ptr noundef @.str.13, ptr noundef @.str.2, i32 noundef 263)
  call void @abort() #11
  unreachable

29:                                               ; preds = %23
  br label %30

30:                                               ; preds = %29
  %31 = load ptr, ptr %4, align 8, !tbaa !10
  %32 = getelementptr inbounds nuw %struct.AVTextFormatContext, ptr %31, i32 0, i32 8
  %33 = load ptr, ptr %4, align 8, !tbaa !10
  %34 = getelementptr inbounds nuw %struct.AVTextFormatContext, ptr %33, i32 0, i32 7
  %35 = load i32, ptr %34, align 4, !tbaa !46
  %36 = sext i32 %35 to i64
  %37 = getelementptr inbounds [12 x i32], ptr %32, i64 0, i64 %36
  store i32 0, ptr %37, align 4, !tbaa !12
  %38 = load ptr, ptr %4, align 8, !tbaa !10
  %39 = getelementptr inbounds nuw %struct.AVTextFormatContext, ptr %38, i32 0, i32 9
  %40 = load ptr, ptr %4, align 8, !tbaa !10
  %41 = getelementptr inbounds nuw %struct.AVTextFormatContext, ptr %40, i32 0, i32 7
  %42 = load i32, ptr %41, align 4, !tbaa !46
  %43 = sext i32 %42 to i64
  %44 = getelementptr inbounds [12 x [100 x i32]], ptr %39, i64 0, i64 %43
  %45 = getelementptr inbounds [100 x i32], ptr %44, i64 0, i64 0
  call void @llvm.memset.p0.i64(ptr align 8 %45, i8 0, i64 400, i1 false)
  %46 = load ptr, ptr %4, align 8, !tbaa !10
  %47 = getelementptr inbounds nuw %struct.AVTextFormatContext, ptr %46, i32 0, i32 5
  %48 = load ptr, ptr %47, align 8, !tbaa !47
  %49 = load i32, ptr %6, align 4, !tbaa !12
  %50 = sext i32 %49 to i64
  %51 = getelementptr inbounds %struct.AVTextFormatSection, ptr %48, i64 %50
  %52 = load ptr, ptr %4, align 8, !tbaa !10
  %53 = getelementptr inbounds nuw %struct.AVTextFormatContext, ptr %52, i32 0, i32 10
  %54 = load ptr, ptr %4, align 8, !tbaa !10
  %55 = getelementptr inbounds nuw %struct.AVTextFormatContext, ptr %54, i32 0, i32 7
  %56 = load i32, ptr %55, align 4, !tbaa !46
  %57 = sext i32 %56 to i64
  %58 = getelementptr inbounds [12 x ptr], ptr %53, i64 0, i64 %57
  store ptr %51, ptr %58, align 8, !tbaa !31
  %59 = load ptr, ptr %4, align 8, !tbaa !10
  %60 = getelementptr inbounds nuw %struct.AVTextFormatContext, ptr %59, i32 0, i32 1
  %61 = load ptr, ptr %60, align 8, !tbaa !14
  %62 = getelementptr inbounds nuw %struct.AVTextFormatter, ptr %61, i32 0, i32 5
  %63 = load ptr, ptr %62, align 8, !tbaa !73
  %64 = icmp ne ptr %63, null
  br i1 %64, label %65, label %73

65:                                               ; preds = %30
  %66 = load ptr, ptr %4, align 8, !tbaa !10
  %67 = getelementptr inbounds nuw %struct.AVTextFormatContext, ptr %66, i32 0, i32 1
  %68 = load ptr, ptr %67, align 8, !tbaa !14
  %69 = getelementptr inbounds nuw %struct.AVTextFormatter, ptr %68, i32 0, i32 5
  %70 = load ptr, ptr %69, align 8, !tbaa !73
  %71 = load ptr, ptr %4, align 8, !tbaa !10
  %72 = load ptr, ptr %5, align 8, !tbaa !50
  call void %70(ptr noundef %71, ptr noundef %72)
  br label %73

73:                                               ; preds = %15, %65, %30
  ret void
}