; Function Attrs: nounwind uwtable
define void @avtext_print_section_header(ptr noundef %0, ptr noundef %1, i32 noundef %2) local_unnamed_addr #0 {
  %4 = icmp slt i32 %2, 0
  br i1 %4, label %8, label %5

5:                                                ; preds = %3
  %6 = getelementptr inbounds nuw i8, ptr %0, i64 48
  %7 = load i32, ptr %6, align 8, !tbaa !40
  %.not = icmp slt i32 %2, %7
  br i1 %.not, label %9, label %8

8:                                                ; preds = %5, %3
  tail call void (ptr, i32, ptr, ...) @av_log(ptr noundef %0, i32 noundef 16, ptr noundef nonnull @.str.12, i32 noundef %2) #12
  br label %36

9:                                                ; preds = %5
  %10 = getelementptr inbounds nuw i8, ptr %0, i64 52
  %11 = load i32, ptr %10, align 4, !tbaa !38
  %12 = add nsw i32 %11, 1
  store i32 %12, ptr %10, align 4, !tbaa !38
  %13 = icmp slt i32 %11, 11
  br i1 %13, label %15, label %14

14:                                               ; preds = %9
  tail call void (ptr, i32, ptr, ...) @av_log(ptr noundef null, i32 noundef 0, ptr noundef nonnull @.str, ptr noundef nonnull @.str.13, ptr noundef nonnull @.str.2, i32 noundef 263) #12
  tail call void @abort() #13
  unreachable

15:                                               ; preds = %9
  %16 = getelementptr inbounds nuw i8, ptr %0, i64 56
  %17 = sext i32 %12 to i64
  %18 = getelementptr inbounds [12 x i32], ptr %16, i64 0, i64 %17
  store i32 0, ptr %18, align 4, !tbaa !59
  %19 = getelementptr inbounds nuw i8, ptr %0, i64 104
  %20 = load i32, ptr %10, align 4, !tbaa !38
  %21 = sext i32 %20 to i64
  %22 = getelementptr inbounds [12 x [100 x i32]], ptr %19, i64 0, i64 %21
  tail call void @llvm.memset.p0.i64(ptr noundef nonnull align 8 dereferenceable(400) %22, i8 0, i64 400, i1 false)
  %23 = getelementptr inbounds nuw i8, ptr %0, i64 40
  %24 = load ptr, ptr %23, align 8, !tbaa !39
  %25 = zext nneg i32 %2 to i64
  %26 = getelementptr inbounds nuw %struct.AVTextFormatSection, ptr %24, i64 %25
  %27 = getelementptr inbounds nuw i8, ptr %0, i64 4904
  %28 = load i32, ptr %10, align 4, !tbaa !38
  %29 = sext i32 %28 to i64
  %30 = getelementptr inbounds [12 x ptr], ptr %27, i64 0, i64 %29
  store ptr %26, ptr %30, align 8, !tbaa !60
  %31 = getelementptr inbounds nuw i8, ptr %0, i64 8
  %32 = load ptr, ptr %31, align 8, !tbaa !9
  %33 = getelementptr inbounds nuw i8, ptr %32, i64 40
  %34 = load ptr, ptr %33, align 8, !tbaa !61
  %.not20 = icmp eq ptr %34, null
  br i1 %.not20, label %36, label %35

35:                                               ; preds = %15
  tail call void %34(ptr noundef nonnull %0, ptr noundef %1) #12
  br label %36

36:                                               ; preds = %35, %15, %8
  ret void
}